; Function Attrs: nounwind uwtable
define hidden void @_glfwInputWindowCloseRequest(ptr noundef initializes((32, 36)) %0) local_unnamed_addr #0 {
  %2 = getelementptr inbounds nuw i8, ptr %0, i64 32
  store i32 1, ptr %2, align 8, !tbaa !135
  %3 = getelementptr inbounds nuw i8, ptr %0, i64 736
  %4 = load ptr, ptr %3, align 8, !tbaa !136
  %.not = icmp eq ptr %4, null
  br i1 %.not, label %6, label %5

5:                                                ; preds = %1
  tail call void %4(ptr noundef nonnull %0) #7
  br label %6

6:                                                ; preds = %5, %1
  ret void
}